target datalayout = "e-m:e-p270:32:32-p271:32:32-p272:64:64-i64:64-i128:128-f80:128-n8:16:32:64-S128"
target triple = "x86_64-unknown-linux-gnu"

%"class.zmq::socks_connecter_t" = type <{ %"class.zmq::stream_connecter_base_t", %"class.zmq::socks_greeting_encoder_t", %"class.zmq::socks_choice_decoder_t", %"class.zmq::socks_basic_auth_request_encoder_t", %"class.zmq::socks_auth_response_decoder_t", %"class.zmq::socks_request_encoder_t", %"class.zmq::socks_response_decoder_t", ptr, i32, [4 x i8], %"class.std::__cxx11::basic_string", %"class.std::__cxx11::basic_string", i32, [4 x i8] }>
%"class.zmq::stream_connecter_base_t" = type { %"class.zmq::own_t.base", %"class.zmq::io_object_t", ptr, i32, ptr, %"class.std::__cxx11::basic_string", ptr, i8, i8, i32, ptr }
%"class.zmq::own_t.base" = type <{ %"class.zmq::object_t.base", [4 x i8], %"struct.zmq::options_t", i8, [7 x i8], %"class.zmq::atomic_counter_t", i64, ptr, %"class.std::set.28", i32 }>
%"class.zmq::object_t.base" = type <{ ptr, ptr, i32 }>
%"struct.zmq::options_t" = type { i32, i32, i64, i8, [256 x i8], i32, i32, i32, i32, i32, i32, i32, i32, i8, %"struct.zmq::atomic_value_t", i32, i32, i32, i32, i32, i32, i64, i32, i32, i8, i32, i8, i8, i8, i8, i8, %"class.std::__cxx11::basic_string", %"class.std::__cxx11::basic_string", %"class.std::__cxx11::basic_string", i32, i32, i32, i32, %"class.std::vector", %"class.std::set", %"class.std::set", %"class.std::set.6", i32, i32, %"class.std::__cxx11::basic_string", %"class.std::__cxx11::basic_string", %"class.std::__cxx11::basic_string", [32 x i8], [32 x i8], [32 x i8], %"class.std::__cxx11::basic_string", %"class.std::__cxx11::basic_string", i32, i32, i8, i32, i8, i32, i8, i16, i32, i32, i32, %"class.std::__cxx11::basic_string", i8, i8, i8, i32, i32, i8, i32, %"class.std::map", i32, %"class.std::__cxx11::basic_string", %"class.std::__cxx11::basic_string", %"class.std::__cxx11::basic_string", %"class.std::__cxx11::basic_string", i8, %"class.std::vector.21", i8, %"class.std::vector.21", i8, %"class.std::vector.21", i8, i32, i8, i32, i32, i32, i32, i32, i8, i32 }
%"struct.zmq::atomic_value_t" = type { %"struct.std::atomic" }
%"struct.std::atomic" = type { %"struct.std::__atomic_base" }
%"struct.std::__atomic_base" = type { i32 }
%"class.std::vector" = type { %"struct.std::_Vector_base" }
%"struct.std::_Vector_base" = type { %"struct.std::_Vector_base<zmq::tcp_address_mask_t, std::allocator<zmq::tcp_address_mask_t>>::_Vector_impl" }
%"struct.std::_Vector_base<zmq::tcp_address_mask_t, std::allocator<zmq::tcp_address_mask_t>>::_Vector_impl" = type { %"struct.std::_Vector_base<zmq::tcp_address_mask_t, std::allocator<zmq::tcp_address_mask_t>>::_Vector_impl_data" }
%"struct.std::_Vector_base<zmq::tcp_address_mask_t, std::allocator<zmq::tcp_address_mask_t>>::_Vector_impl_data" = type { ptr, ptr, ptr }
%"class.std::set" = type { %"class.std::_Rb_tree" }
%"class.std::_Rb_tree" = type { %"struct.std::_Rb_tree<unsigned int, unsigned int, std::_Identity<unsigned int>, std::less<unsigned int>>::_Rb_tree_impl" }
%"struct.std::_Rb_tree<unsigned int, unsigned int, std::_Identity<unsigned int>, std::less<unsigned int>>::_Rb_tree_impl" = type { %"struct.std::_Rb_tree_key_compare", %"struct.std::_Rb_tree_header" }
%"struct.std::_Rb_tree_key_compare" = type { %"struct.std::less" }
%"struct.std::less" = type { i8 }
%"struct.std::_Rb_tree_header" = type { %"struct.std::_Rb_tree_node_base", i64 }
%"struct.std::_Rb_tree_node_base" = type { i32, ptr, ptr, ptr }
%"class.std::set.6" = type { %"class.std::_Rb_tree.7" }
%"class.std::_Rb_tree.7" = type { %"struct.std::_Rb_tree<int, int, std::_Identity<int>, std::less<int>>::_Rb_tree_impl" }
%"struct.std::_Rb_tree<int, int, std::_Identity<int>, std::less<int>>::_Rb_tree_impl" = type { %"struct.std::_Rb_tree_key_compare.11", %"struct.std::_Rb_tree_header" }
%"struct.std::_Rb_tree_key_compare.11" = type { %"struct.std::less.12" }
%"struct.std::less.12" = type { i8 }
%"class.std::map" = type { %"class.std::_Rb_tree.14" }
%"class.std::_Rb_tree.14" = type { %"struct.std::_Rb_tree<std::__cxx11::basic_string<char>, std::pair<const std::__cxx11::basic_string<char>, std::__cxx11::basic_string<char>>, std::_Select1st<std::pair<const std::__cxx11::basic_string<char>, std::__cxx11::basic_string<char>>>, std::less<std::__cxx11::basic_string<char>>>::_Rb_tree_impl" }
%"struct.std::_Rb_tree<std::__cxx11::basic_string<char>, std::pair<const std::__cxx11::basic_string<char>, std::__cxx11::basic_string<char>>, std::_Select1st<std::pair<const std::__cxx11::basic_string<char>, std::__cxx11::basic_string<char>>>, std::less<std::__cxx11::basic_string<char>>>::_Rb_tree_impl" = type { %"struct.std::_Rb_tree_key_compare.18", %"struct.std::_Rb_tree_header" }
%"struct.std::_Rb_tree_key_compare.18" = type { %"struct.std::less.19" }
%"struct.std::less.19" = type { i8 }
%"class.std::vector.21" = type { %"struct.std::_Vector_base.22" }
%"struct.std::_Vector_base.22" = type { %"struct.std::_Vector_base<unsigned char, std::allocator<unsigned char>>::_Vector_impl" }
%"struct.std::_Vector_base<unsigned char, std::allocator<unsigned char>>::_Vector_impl" = type { %"struct.std::_Vector_base<unsigned char, std::allocator<unsigned char>>::_Vector_impl_data" }
%"struct.std::_Vector_base<unsigned char, std::allocator<unsigned char>>::_Vector_impl_data" = type { ptr, ptr, ptr }
%"class.zmq::atomic_counter_t" = type { %"struct.std::atomic.26", [4 x i8] }
%"struct.std::atomic.26" = type { %"struct.std::__atomic_base.27" }
%"struct.std::__atomic_base.27" = type { i32 }
%"class.std::set.28" = type { %"class.std::_Rb_tree.29" }
%"class.std::_Rb_tree.29" = type { %"struct.std::_Rb_tree<zmq::own_t *, zmq::own_t *, std::_Identity<zmq::own_t *>, std::less<zmq::own_t *>>::_Rb_tree_impl" }
%"struct.std::_Rb_tree<zmq::own_t *, zmq::own_t *, std::_Identity<zmq::own_t *>, std::less<zmq::own_t *>>::_Rb_tree_impl" = type { %"struct.std::_Rb_tree_key_compare.33", %"struct.std::_Rb_tree_header" }
%"struct.std::_Rb_tree_key_compare.33" = type { %"struct.std::less.34" }
%"struct.std::less.34" = type { i8 }
%"class.zmq::io_object_t" = type { %"struct.zmq::i_poll_events", ptr }
%"struct.zmq::i_poll_events" = type { ptr }
%"class.zmq::socks_greeting_encoder_t" = type <{ i64, i64, [257 x i8], [7 x i8] }>
%"class.zmq::socks_choice_decoder_t" = type { [2 x i8], i64 }
%"class.zmq::socks_basic_auth_request_encoder_t" = type <{ i64, i64, [513 x i8], [7 x i8] }>
%"class.zmq::socks_auth_response_decoder_t" = type { [2 x i8], i64 }
%"class.zmq::socks_request_encoder_t" = type <{ i64, i64, [262 x i8], [2 x i8] }>
%"class.zmq::socks_response_decoder_t" = type { [262 x i8], i64 }
%"class.std::__cxx11::basic_string" = type { %"struct.std::__cxx11::basic_string<char>::_Alloc_hider", i64, %union.anon }
%"struct.std::__cxx11::basic_string<char>::_Alloc_hider" = type { ptr }
%union.anon = type { i64, [8 x i8] }
%"struct.zmq::address_t" = type { %"class.std::__cxx11::basic_string", %"class.std::__cxx11::basic_string", ptr, %union.anon.36 }
%union.anon.36 = type { ptr }

@_ZN3zmq13protocol_nameL3tcpE = internal constant [4 x i8] c"tcp\00", align 1
@stderr = external global ptr, align 8
@.str = private unnamed_addr constant [30 x i8] c"Assertion failed: %s (%s:%d)\0A\00", align 1
@.str.1 = private unnamed_addr constant [38 x i8] c"_addr->protocol == protocol_name::tcp\00", align 1
@.str.2 = private unnamed_addr constant [115 x i8] c"generated/home/dtcxzyw/WorkSpace/Projects/compilers/llvm-opt-benchmark/bench/libzmq/libzmq/src/socks_connecter.cpp\00", align 1

; Function Attrs: mustprogress nounwind uwtable
define linkonce_odr noundef zeroext i1 @_ZSteqIcSt11char_traitsIcESaIcEEbRKNSt7__cxx1112basic_stringIT_T0_T1_EEPKS5_(ptr noundef nonnull align 8 dereferenceable(32) %__lhs, ptr noundef %__rhs) #3 comdat {
entry:
  %__lhs.addr = alloca ptr, align 8
  %__rhs.addr = alloca ptr, align 8
  store ptr %__lhs, ptr %__lhs.addr, align 8
  store ptr %__rhs, ptr %__rhs.addr, align 8
  %0 = load ptr, ptr %__lhs.addr, align 8
  %1 = load ptr, ptr %__rhs.addr, align 8
  %call = call noundef i32 @_ZNKSt7__cxx1112basic_stringIcSt11char_traitsIcESaIcEE7compareEPKc(ptr noundef nonnull align 8 dereferenceable(32) %0, ptr noundef %1) #10
  %cmp = icmp eq i32 %call, 0
  ret i1 %cmp
}

; Function Attrs: mustprogress uwtable
define void @_ZN3zmq17socks_connecter_tC2EPNS_11io_thread_tEPNS_14session_base_tERKNS_9options_tEPNS_9address_tES9_b(ptr noundef nonnull align 8 dereferenceable(3032) %this, ptr noundef %io_thread_, ptr noundef %session_, ptr noundef nonnull align 8 dereferenceable(1336) %options_, ptr noundef %addr_, ptr noundef %proxy_addr_, i1 noundef zeroext %delayed_start_) unnamed_addr #0 align 2 personality ptr @__gxx_personality_v0 {
entry:
  %this.addr = alloca ptr, align 8
  %io_thread_.addr = alloca ptr, align 8
  %session_.addr = alloca ptr, align 8
  %options_.addr = alloca ptr, align 8
  %addr_.addr = alloca ptr, align 8
  %proxy_addr_.addr = alloca ptr, align 8
  %delayed_start_.addr = alloca i8, align 1
  %exn.slot = alloca ptr, align 8
  %ehselector.slot = alloca i32, align 4
  store ptr %this, ptr %this.addr, align 8
  store ptr %io_thread_, ptr %io_thread_.addr, align 8
  store ptr %session_, ptr %session_.addr, align 8
  store ptr %options_, ptr %options_.addr, align 8
  store ptr %addr_, ptr %addr_.addr, align 8
  store ptr %proxy_addr_, ptr %proxy_addr_.addr, align 8
  %frombool = zext i1 %delayed_start_ to i8
  store i8 %frombool, ptr %delayed_start_.addr, align 1
  %this1 = load ptr, ptr %this.addr, align 8
  %0 = load ptr, ptr %io_thread_.addr, align 8
  %1 = load ptr, ptr %session_.addr, align 8
  %2 = load ptr, ptr %options_.addr, align 8
  %3 = load ptr, ptr %addr_.addr, align 8
  %4 = load i8, ptr %delayed_start_.addr, align 1
  %tobool = trunc i8 %4 to i1
  call void @_ZN3zmq23stream_connecter_base_tC2EPNS_11io_thread_tEPNS_14session_base_tERKNS_9options_tEPNS_9address_tEb(ptr noundef nonnull align 8 dereferenceable(1544) %this1, ptr noundef %0, ptr noundef %1, ptr noundef nonnull align 8 dereferenceable(1336) %2, ptr noundef %3, i1 noundef zeroext %tobool)
  store ptr getelementptr inbounds ({ [31 x ptr], [7 x ptr] }, ptr @_ZTVN3zmq17socks_connecter_tE, i32 0, i32 0, i32 2), ptr %this1, align 8
  %add.ptr = getelementptr inbounds i8, ptr %this1, i64 1448
  store ptr getelementptr inbounds ({ [31 x ptr], [7 x ptr] }, ptr @_ZTVN3zmq17socks_connecter_tE, i32 0, i32 1, i32 2), ptr %add.ptr, align 8
  %_greeting_encoder = getelementptr inbounds %"class.zmq::socks_connecter_t", ptr %this1, i32 0, i32 1
  invoke void @_ZN3zmq24socks_greeting_encoder_tC1Ev(ptr noundef nonnull align 8 dereferenceable(273) %_greeting_encoder)
          to label %invoke.cont unwind label %lpad

invoke.cont:                                      ; preds = %entry
  %_choice_decoder = getelementptr inbounds %"class.zmq::socks_connecter_t", ptr %this1, i32 0, i32 2
  invoke void @_ZN3zmq22socks_choice_decoder_tC1Ev(ptr noundef nonnull align 8 dereferenceable(16) %_choice_decoder)
          to label %invoke.cont2 unwind label %lpad

invoke.cont2:                                     ; preds = %invoke.cont
  %_basic_auth_request_encoder = getelementptr inbounds %"class.zmq::socks_connecter_t", ptr %this1, i32 0, i32 3
  invoke void @_ZN3zmq34socks_basic_auth_request_encoder_tC1Ev(ptr noundef nonnull align 8 dereferenceable(529) %_basic_auth_request_encoder)
          to label %invoke.cont3 unwind label %lpad

invoke.cont3:                                     ; preds = %invoke.cont2
  %_auth_response_decoder = getelementptr inbounds %"class.zmq::socks_connecter_t", ptr %this1, i32 0, i32 4
  invoke void @_ZN3zmq29socks_auth_response_decoder_tC1Ev(ptr noundef nonnull align 8 dereferenceable(16) %_auth_response_decoder)
          to label %invoke.cont4 unwind label %lpad

invoke.cont4:                                     ; preds = %invoke.cont3
  %_request_encoder = getelementptr inbounds %"class.zmq::socks_connecter_t", ptr %this1, i32 0, i32 5
  invoke void @_ZN3zmq23socks_request_encoder_tC1Ev(ptr noundef nonnull align 8 dereferenceable(278) %_request_encoder)
          to label %invoke.cont5 unwind label %lpad

invoke.cont5:                                     ; preds = %invoke.cont4
  %_response_decoder = getelementptr inbounds %"class.zmq::socks_connecter_t", ptr %this1, i32 0, i32 6
  invoke void @_ZN3zmq24socks_response_decoder_tC1Ev(ptr noundef nonnull align 8 dereferenceable(272) %_response_decoder)
          to label %invoke.cont6 unwind label %lpad

invoke.cont6:                                     ; preds = %invoke.cont5
  %_proxy_addr = getelementptr inbounds %"class.zmq::socks_connecter_t", ptr %this1, i32 0, i32 7
  %5 = load ptr, ptr %proxy_addr_.addr, align 8
  store ptr %5, ptr %_proxy_addr, align 8
  %_auth_method = getelementptr inbounds %"class.zmq::socks_connecter_t", ptr %this1, i32 0, i32 8
  store i32 0, ptr %_auth_method, align 8
  %_auth_username = getelementptr inbounds %"class.zmq::socks_connecter_t", ptr %this1, i32 0, i32 10
  call void @_ZNSt7__cxx1112basic_stringIcSt11char_traitsIcESaIcEEC1Ev(ptr noundef nonnull align 8 dereferenceable(32) %_auth_username) #10
  %_auth_password = getelementptr inbounds %"class.zmq::socks_connecter_t", ptr %this1, i32 0, i32 11
  call void @_ZNSt7__cxx1112basic_stringIcSt11char_traitsIcESaIcEEC1Ev(ptr noundef nonnull align 8 dereferenceable(32) %_auth_password) #10
  %_status = getelementptr inbounds %"class.zmq::socks_connecter_t", ptr %this1, i32 0, i32 12
  store i32 0, ptr %_status, align 8
  br label %do.body

do.body:                                          ; preds = %invoke.cont6
  %_addr = getelementptr inbounds %"class.zmq::stream_connecter_base_t", ptr %this1, i32 0, i32 2
  %6 = load ptr, ptr %_addr, align 8
  %protocol = getelementptr inbounds %"struct.zmq::address_t", ptr %6, i32 0, i32 0
  %call = invoke noundef zeroext i1 @_ZSteqIcSt11char_traitsIcESaIcEEbRKNSt7__cxx1112basic_stringIT_T0_T1_EEPKS5_(ptr noundef nonnull align 8 dereferenceable(32) %protocol, ptr noundef @_ZN3zmq13protocol_nameL3tcpE)
          to label %invoke.cont8 unwind label %lpad7

invoke.cont8:                                     ; preds = %do.body
  %lnot = xor i1 %call, true
  br i1 %lnot, label %if.then, label %if.end

if.then:                                          ; preds = %invoke.cont8
  %7 = load ptr, ptr @stderr, align 8
  %call10 = invoke i32 (ptr, ptr, ...) @fprintf(ptr noundef %7, ptr noundef @.str, ptr noundef @.str.1, ptr noundef @.str.2, i32 noundef 39)
          to label %invoke.cont9 unwind label %lpad7

invoke.cont9:                                     ; preds = %if.then
  %8 = load ptr, ptr @stderr, align 8
  %call12 = invoke i32 @fflush(ptr noundef %8)
          to label %invoke.cont11 unwind label %lpad7

invoke.cont11:                                    ; preds = %invoke.cont9
  invoke void @_ZN3zmq9zmq_abortEPKc(ptr noundef @.str.1)
          to label %invoke.cont13 unwind label %lpad7

invoke.cont13:                                    ; preds = %invoke.cont11
  br label %if.end

lpad:                                             ; preds = %invoke.cont5, %invoke.cont4, %invoke.cont3, %invoke.cont2, %invoke.cont, %entry
  %9 = landingpad { ptr, i32 }
          cleanup
  %10 = extractvalue { ptr, i32 } %9, 0
  store ptr %10, ptr %exn.slot, align 8
  %11 = extractvalue { ptr, i32 } %9, 1
  store i32 %11, ptr %ehselector.slot, align 4
  br label %ehcleanup

lpad7:                                            ; preds = %do.end, %invoke.cont11, %invoke.cont9, %if.then, %do.body
  %12 = landingpad { ptr, i32 }
          cleanup
  %13 = extractvalue { ptr, i32 } %12, 0
  store ptr %13, ptr %exn.slot, align 8
  %14 = extractvalue { ptr, i32 } %12, 1
  store i32 %14, ptr %ehselector.slot, align 4
  call void @_ZNSt7__cxx1112basic_stringIcSt11char_traitsIcESaIcEED1Ev(ptr noundef nonnull align 8 dereferenceable(32) %_auth_password) #10
  call void @_ZNSt7__cxx1112basic_stringIcSt11char_traitsIcESaIcEED1Ev(ptr noundef nonnull align 8 dereferenceable(32) %_auth_username) #10
  br label %ehcleanup

if.end:                                           ; preds = %invoke.cont13, %invoke.cont8
  br label %do.cond

do.cond:                                          ; preds = %if.end
  br label %do.end

do.end:                                           ; preds = %do.cond
  %_proxy_addr14 = getelementptr inbounds %"class.zmq::socks_connecter_t", ptr %this1, i32 0, i32 7
  %15 = load ptr, ptr %_proxy_addr14, align 8
  %_endpoint = getelementptr inbounds %"class.zmq::stream_connecter_base_t", ptr %this1, i32 0, i32 5
  %call16 = invoke noundef i32 @_ZNK3zmq9address_t9to_stringERNSt7__cxx1112basic_stringIcSt11char_traitsIcESaIcEEE(ptr noundef nonnull align 8 dereferenceable(80) %15, ptr noundef nonnull align 8 dereferenceable(32) %_endpoint)
          to label %invoke.cont15 unwind label %lpad7

invoke.cont15:                                    ; preds = %do.end
  ret void

ehcleanup:                                        ; preds = %lpad7, %lpad
  call void @_ZN3zmq23stream_connecter_base_tD2Ev(ptr noundef nonnull align 8 dereferenceable(1544) %this1) #10
  br label %eh.resume

eh.resume:                                        ; preds = %ehcleanup
  %exn = load ptr, ptr %exn.slot, align 8
  %sel = load i32, ptr %ehselector.slot, align 4
  %lpad.val = insertvalue { ptr, i32 } poison, ptr %exn, 0
  %lpad.val17 = insertvalue { ptr, i32 } %lpad.val, i32 %sel, 1
  resume { ptr, i32 } %lpad.val17
}