; Function Attrs: mustprogress uwtable
define void @_ZN3zmq17socks_connecter_tC2EPNS_11io_thread_tEPNS_14session_base_tERKNS_9options_tEPNS_9address_tES9_b(ptr noundef nonnull align 8 dereferenceable(3032) %this, ptr noundef %io_thread_, ptr noundef %session_, ptr noundef nonnull align 8 dereferenceable(1336) %options_, ptr noundef %addr_, ptr noundef %proxy_addr_, i1 noundef zeroext %delayed_start_) unnamed_addr #0 align 2 personality ptr @__gxx_personality_v0 {
entry:
  tail call void @_ZN3zmq23stream_connecter_base_tC2EPNS_11io_thread_tEPNS_14session_base_tERKNS_9options_tEPNS_9address_tEb(ptr noundef nonnull align 8 dereferenceable(1544) %this, ptr noundef %io_thread_, ptr noundef %session_, ptr noundef nonnull align 8 dereferenceable(1336) %options_, ptr noundef %addr_, i1 noundef zeroext %delayed_start_)
  store ptr getelementptr inbounds ({ [31 x ptr], [7 x ptr] }, ptr @_ZTVN3zmq17socks_connecter_tE, i64 0, i32 0, i64 2), ptr %this, align 8
  %add.ptr = getelementptr inbounds i8, ptr %this, i64 1448
  store ptr getelementptr inbounds ({ [31 x ptr], [7 x ptr] }, ptr @_ZTVN3zmq17socks_connecter_tE, i64 0, i32 1, i64 2), ptr %add.ptr, align 8
  %_greeting_encoder = getelementptr inbounds i8, ptr %this, i64 1544
  invoke void @_ZN3zmq24socks_greeting_encoder_tC1Ev(ptr noundef nonnull align 8 dereferenceable(273) %_greeting_encoder)
          to label %invoke.cont unwind label %lpad

invoke.cont:                                      ; preds = %entry
  %_choice_decoder = getelementptr inbounds i8, ptr %this, i64 1824
  invoke void @_ZN3zmq22socks_choice_decoder_tC1Ev(ptr noundef nonnull align 8 dereferenceable(16) %_choice_decoder)
          to label %invoke.cont2 unwind label %lpad

invoke.cont2:                                     ; preds = %invoke.cont
  %_basic_auth_request_encoder = getelementptr inbounds i8, ptr %this, i64 1840
  invoke void @_ZN3zmq34socks_basic_auth_request_encoder_tC1Ev(ptr noundef nonnull align 8 dereferenceable(529) %_basic_auth_request_encoder)
          to label %invoke.cont3 unwind label %lpad

invoke.cont3:                                     ; preds = %invoke.cont2
  %_auth_response_decoder = getelementptr inbounds i8, ptr %this, i64 2376
  invoke void @_ZN3zmq29socks_auth_response_decoder_tC1Ev(ptr noundef nonnull align 8 dereferenceable(16) %_auth_response_decoder)
          to label %invoke.cont4 unwind label %lpad

invoke.cont4:                                     ; preds = %invoke.cont3
  %_request_encoder = getelementptr inbounds i8, ptr %this, i64 2392
  invoke void @_ZN3zmq23socks_request_encoder_tC1Ev(ptr noundef nonnull align 8 dereferenceable(278) %_request_encoder)
          to label %invoke.cont5 unwind label %lpad

invoke.cont5:                                     ; preds = %invoke.cont4
  %_response_decoder = getelementptr inbounds i8, ptr %this, i64 2672
  invoke void @_ZN3zmq24socks_response_decoder_tC1Ev(ptr noundef nonnull align 8 dereferenceable(272) %_response_decoder)
          to label %invoke.cont6 unwind label %lpad

invoke.cont6:                                     ; preds = %invoke.cont5
  %_proxy_addr = getelementptr inbounds i8, ptr %this, i64 2944
  store ptr %proxy_addr_, ptr %_proxy_addr, align 8
  %_auth_method = getelementptr inbounds i8, ptr %this, i64 2952
  store i32 0, ptr %_auth_method, align 8
  %_auth_username = getelementptr inbounds i8, ptr %this, i64 2960
  tail call void @_ZNSt7__cxx1112basic_stringIcSt11char_traitsIcESaIcEEC1Ev(ptr noundef nonnull align 8 dereferenceable(32) %_auth_username) #13
  %_auth_password = getelementptr inbounds i8, ptr %this, i64 2992
  tail call void @_ZNSt7__cxx1112basic_stringIcSt11char_traitsIcESaIcEEC1Ev(ptr noundef nonnull align 8 dereferenceable(32) %_auth_password) #13
  %_status = getelementptr inbounds i8, ptr %this, i64 3024
  store i32 0, ptr %_status, align 8
  %_addr = getelementptr inbounds i8, ptr %this, i64 1464
  %0 = load ptr, ptr %_addr, align 8
  %call.i = tail call noundef i32 @_ZNKSt7__cxx1112basic_stringIcSt11char_traitsIcESaIcEE7compareEPKc(ptr noundef nonnull align 8 dereferenceable(32) %0, ptr noundef nonnull @_ZN3zmq13protocol_nameL3tcpE) #13
  %cmp.i = icmp eq i32 %call.i, 0
  br i1 %cmp.i, label %do.end, label %if.then

if.then:                                          ; preds = %invoke.cont6
  %1 = load ptr, ptr @stderr, align 8
  %call10 = tail call i32 (ptr, ptr, ...) @fprintf(ptr noundef %1, ptr noundef nonnull @.str, ptr noundef nonnull @.str.1, ptr noundef nonnull @.str.2, i32 noundef 39) #14
  %2 = load ptr, ptr @stderr, align 8
  %call12 = tail call i32 @fflush(ptr noundef %2)
  invoke void @_ZN3zmq9zmq_abortEPKc(ptr noundef nonnull @.str.1)
          to label %do.end unwind label %lpad7

lpad:                                             ; preds = %invoke.cont5, %invoke.cont4, %invoke.cont3, %invoke.cont2, %invoke.cont, %entry
  %3 = landingpad { ptr, i32 }
          cleanup
  br label %ehcleanup

lpad7:                                            ; preds = %do.end, %if.then
  %4 = landingpad { ptr, i32 }
          cleanup
  tail call void @_ZNSt7__cxx1112basic_stringIcSt11char_traitsIcESaIcEED1Ev(ptr noundef nonnull align 8 dereferenceable(32) %_auth_password) #13
  tail call void @_ZNSt7__cxx1112basic_stringIcSt11char_traitsIcESaIcEED1Ev(ptr noundef nonnull align 8 dereferenceable(32) %_auth_username) #13
  br label %ehcleanup

do.end:                                           ; preds = %if.then, %invoke.cont6
  %5 = load ptr, ptr %_proxy_addr, align 8
  %_endpoint = getelementptr inbounds i8, ptr %this, i64 1488
  %call16 = invoke noundef i32 @_ZNK3zmq9address_t9to_stringERNSt7__cxx1112basic_stringIcSt11char_traitsIcESaIcEEE(ptr noundef nonnull align 8 dereferenceable(80) %5, ptr noundef nonnull align 8 dereferenceable(32) %_endpoint)
          to label %invoke.cont15 unwind label %lpad7

invoke.cont15:                                    ; preds = %do.end
  ret void

ehcleanup:                                        ; preds = %lpad7, %lpad
  %.pn = phi { ptr, i32 } [ %4, %lpad7 ], [ %3, %lpad ]
  tail call void @_ZN3zmq23stream_connecter_base_tD2Ev(ptr noundef nonnull align 8 dereferenceable(1544) %this) #13
  resume { ptr, i32 } %.pn
}